target datalayout = "e-m:e-p270:32:32-p271:32:32-p272:64:64-i64:64-i128:128-f80:128-n8:16:32:64-S128"
target triple = "x86_64-pc-linux-gnu"

%struct.lua_TValue = type { %union.Value, [1 x i32], i32 }
%union.Value = type { ptr }
%struct.lua_State = type { i8, i8, i8, i8, i8, i8, i8, ptr, ptr, ptr, ptr, ptr, ptr, ptr, ptr, i32, i32, i16, i16, i32, ptr, ptr, ptr, ptr, ptr }
%struct.TString = type { i8, i8, i8, i16, ptr, i32, i32, [1 x i8] }
%struct.CallInfo = type { ptr, ptr, ptr, ptr, i32, i32 }
%struct.Closure = type { i8, i8, i8, i8, i8, i8, i8, ptr, ptr, %union.anon.1 }
%union.anon.1 = type { %struct.anon.2 }
%struct.anon.2 = type { ptr, ptr, ptr, [1 x %struct.lua_TValue] }
%struct.anon.3 = type { ptr, [1 x %struct.lua_TValue] }
%struct.Proto = type { i8, i8, i8, i8, i8, i8, i8, i8, ptr, ptr, ptr, ptr, ptr, i64, ptr, ptr, ptr, ptr, ptr, ptr, ptr, ptr, ptr, ptr, i32, i32, i32, i32, i32, i32, i32, i32, i32, i32 }

; Function Attrs: mustprogress nounwind uwtable
define internal noundef i32 @_ZL12luauF_selectP9lua_StateP10lua_TValueS2_iS2_i(ptr noundef %0, ptr noundef %1, ptr noundef %2, i32 noundef %3, ptr noundef %4, i32 noundef %5) #0 {
  %7 = alloca i32, align 4
  %8 = alloca ptr, align 8
  %9 = alloca ptr, align 8
  %10 = alloca ptr, align 8
  %11 = alloca i32, align 4
  %12 = alloca ptr, align 8
  %13 = alloca i32, align 4
  %14 = alloca i32, align 4
  %15 = alloca i32, align 4
  %16 = alloca ptr, align 8
  %17 = alloca ptr, align 8
  %18 = alloca i32, align 4
  %19 = alloca ptr, align 8
  store ptr %0, ptr %8, align 8, !tbaa !4
  store ptr %1, ptr %9, align 8, !tbaa !9
  store ptr %2, ptr %10, align 8, !tbaa !9
  store i32 %3, ptr %11, align 4, !tbaa !11
  store ptr %4, ptr %12, align 8, !tbaa !9
  store i32 %5, ptr %13, align 4, !tbaa !11
  %20 = load i32, ptr %13, align 4, !tbaa !11
  %21 = icmp eq i32 %20, 1
  br i1 %21, label %22, label %113

22:                                               ; preds = %6
  %23 = load i32, ptr %11, align 4, !tbaa !11
  %24 = icmp eq i32 %23, 1
  br i1 %24, label %25, label %113

25:                                               ; preds = %22
  call void @llvm.lifetime.start.p0(i64 4, ptr %14) #17
  %26 = load ptr, ptr %8, align 8, !tbaa !4
  %27 = getelementptr inbounds nuw %struct.lua_State, ptr %26, i32 0, i32 8
  %28 = load ptr, ptr %27, align 8, !tbaa !74
  %29 = load ptr, ptr %8, align 8, !tbaa !4
  %30 = getelementptr inbounds nuw %struct.lua_State, ptr %29, i32 0, i32 10
  %31 = load ptr, ptr %30, align 8, !tbaa !66
  %32 = getelementptr inbounds nuw %struct.CallInfo, ptr %31, i32 0, i32 1
  %33 = load ptr, ptr %32, align 8, !tbaa !75
  %34 = ptrtoint ptr %28 to i64
  %35 = ptrtoint ptr %33 to i64
  %36 = sub i64 %34, %35
  %37 = sdiv exact i64 %36, 16
  %38 = trunc i64 %37 to i32
  %39 = load ptr, ptr %8, align 8, !tbaa !4
  %40 = getelementptr inbounds nuw %struct.lua_State, ptr %39, i32 0, i32 10
  %41 = load ptr, ptr %40, align 8, !tbaa !66
  %42 = getelementptr inbounds nuw %struct.CallInfo, ptr %41, i32 0, i32 1
  %43 = load ptr, ptr %42, align 8, !tbaa !75
  %44 = getelementptr inbounds nuw %struct.lua_TValue, ptr %43, i32 0, i32 0
  %45 = load ptr, ptr %44, align 8, !tbaa !15
  %46 = getelementptr inbounds nuw %struct.Closure, ptr %45, i32 0, i32 9
  %47 = getelementptr inbounds nuw %struct.anon.3, ptr %46, i32 0, i32 0
  %48 = load ptr, ptr %47, align 8, !tbaa !15
  %49 = getelementptr inbounds nuw %struct.Proto, ptr %48, i32 0, i32 4
  %50 = load i8, ptr %49, align 4, !tbaa !76
  %51 = zext i8 %50 to i32
  %52 = sub nsw i32 %38, %51
  %53 = sub nsw i32 %52, 1
  store i32 %53, ptr %14, align 4, !tbaa !11
  %54 = load ptr, ptr %10, align 8, !tbaa !9
  %55 = getelementptr inbounds nuw %struct.lua_TValue, ptr %54, i32 0, i32 2
  %56 = load i32, ptr %55, align 4, !tbaa !13
  %57 = icmp eq i32 %56, 3
  br i1 %57, label %58, label %86

58:                                               ; preds = %25
  call void @llvm.lifetime.start.p0(i64 4, ptr %15) #17
  %59 = load ptr, ptr %10, align 8, !tbaa !9
  %60 = getelementptr inbounds nuw %struct.lua_TValue, ptr %59, i32 0, i32 0
  %61 = load double, ptr %60, align 8, !tbaa !15
  %62 = fptosi double %61 to i32
  store i32 %62, ptr %15, align 4, !tbaa !11
  %63 = load i32, ptr %15, align 4, !tbaa !11
  %64 = sub nsw i32 %63, 1
  %65 = load i32, ptr %14, align 4, !tbaa !11
  %66 = icmp ult i32 %64, %65
  br i1 %66, label %67, label %82

67:                                               ; preds = %58
  call void @llvm.lifetime.start.p0(i64 8, ptr %16) #17
  %68 = load ptr, ptr %8, align 8, !tbaa !4
  %69 = getelementptr inbounds nuw %struct.lua_State, ptr %68, i32 0, i32 8
  %70 = load ptr, ptr %69, align 8, !tbaa !74
  %71 = load i32, ptr %14, align 4, !tbaa !11
  %72 = sext i32 %71 to i64
  %73 = sub i64 0, %72
  %74 = getelementptr inbounds %struct.lua_TValue, ptr %70, i64 %73
  %75 = load i32, ptr %15, align 4, !tbaa !11
  %76 = sub nsw i32 %75, 1
  %77 = sext i32 %76 to i64
  %78 = getelementptr inbounds %struct.lua_TValue, ptr %74, i64 %77
  store ptr %78, ptr %16, align 8, !tbaa !9
  call void @llvm.lifetime.start.p0(i64 8, ptr %17) #17
  %79 = load ptr, ptr %9, align 8, !tbaa !9
  store ptr %79, ptr %17, align 8, !tbaa !9
  %80 = load ptr, ptr %16, align 8, !tbaa !9
  %81 = load ptr, ptr %17, align 8, !tbaa !9
  call void @llvm.memcpy.p0.p0.i64(ptr align 8 %81, ptr align 8 %80, i64 16, i1 false), !tbaa.struct !61
  call void @llvm.lifetime.end.p0(i64 8, ptr %17) #17
  call void @llvm.lifetime.end.p0(i64 8, ptr %16) #17
  store i32 1, ptr %7, align 4
  store i32 1, ptr %18, align 4
  br label %83

82:                                               ; preds = %58
  store i32 0, ptr %18, align 4
  br label %83

83:                                               ; preds = %82, %67
  call void @llvm.lifetime.end.p0(i64 4, ptr %15) #17
  %84 = load i32, ptr %18, align 4
  switch i32 %84, label %110 [
    i32 0, label %85
  ]

85:                                               ; preds = %83
  br label %109

86:                                               ; preds = %25
  %87 = load ptr, ptr %10, align 8, !tbaa !9
  %88 = getelementptr inbounds nuw %struct.lua_TValue, ptr %87, i32 0, i32 2
  %89 = load i32, ptr %88, align 4, !tbaa !13
  %90 = icmp eq i32 %89, 5
  br i1 %90, label %91, label %108

91:                                               ; preds = %86
  %92 = load ptr, ptr %10, align 8, !tbaa !9
  %93 = getelementptr inbounds nuw %struct.lua_TValue, ptr %92, i32 0, i32 0
  %94 = load ptr, ptr %93, align 8, !tbaa !15
  %95 = getelementptr inbounds nuw %struct.TString, ptr %94, i32 0, i32 7
  %96 = getelementptr inbounds [1 x i8], ptr %95, i64 0, i64 0
  %97 = load i8, ptr %96, align 8, !tbaa !15
  %98 = sext i8 %97 to i32
  %99 = icmp eq i32 %98, 35
  br i1 %99, label %100, label %108

100:                                              ; preds = %91
  call void @llvm.lifetime.start.p0(i64 8, ptr %19) #17
  %101 = load ptr, ptr %9, align 8, !tbaa !9
  store ptr %101, ptr %19, align 8, !tbaa !9
  %102 = load i32, ptr %14, align 4, !tbaa !11
  %103 = sitofp i32 %102 to double
  %104 = load ptr, ptr %19, align 8, !tbaa !9
  %105 = getelementptr inbounds nuw %struct.lua_TValue, ptr %104, i32 0, i32 0
  store double %103, ptr %105, align 8, !tbaa !15
  %106 = load ptr, ptr %19, align 8, !tbaa !9
  %107 = getelementptr inbounds nuw %struct.lua_TValue, ptr %106, i32 0, i32 2
  store i32 3, ptr %107, align 4, !tbaa !13
  call void @llvm.lifetime.end.p0(i64 8, ptr %19) #17
  store i32 1, ptr %7, align 4
  store i32 1, ptr %18, align 4
  br label %110

108:                                              ; preds = %91, %86
  br label %109

109:                                              ; preds = %108, %85
  store i32 0, ptr %18, align 4
  br label %110

110:                                              ; preds = %109, %100, %83
  call void @llvm.lifetime.end.p0(i64 4, ptr %14) #17
  %111 = load i32, ptr %18, align 4
  switch i32 %111, label %116 [
    i32 0, label %112
    i32 1, label %114
  ]

112:                                              ; preds = %110
  br label %113

113:                                              ; preds = %112, %22, %6
  store i32 -1, ptr %7, align 4
  br label %114

114:                                              ; preds = %113, %110
  %115 = load i32, ptr %7, align 4
  ret i32 %115

116:                                              ; preds = %110
  unreachable
}