; Function Attrs: mustprogress nofree norecurse nosync nounwind willreturn memory(readwrite, inaccessiblemem: none) uwtable
define internal noundef range(i32 -1, 2) i32 @_ZL12luauF_selectP9lua_StateP10lua_TValueS2_iS2_i(ptr noundef readonly captures(none) %0, ptr noundef writeonly captures(none) %1, ptr noundef readonly captures(none) %2, i32 noundef %3, ptr readnone captures(none) %4, i32 noundef %5) #9 {
  %7 = icmp eq i32 %5, 1
  %8 = icmp eq i32 %3, 1
  %or.cond = and i1 %8, %7
  br i1 %or.cond, label %9, label %.critedge

9:                                                ; preds = %6
  %10 = getelementptr inbounds nuw i8, ptr %0, i64 16
  %11 = load ptr, ptr %10, align 8, !tbaa !71
  %12 = getelementptr inbounds nuw i8, ptr %0, i64 32
  %13 = load ptr, ptr %12, align 8, !tbaa !60
  %14 = getelementptr inbounds nuw i8, ptr %13, i64 8
  %15 = load ptr, ptr %14, align 8, !tbaa !72
  %16 = ptrtoint ptr %11 to i64
  %17 = ptrtoint ptr %15 to i64
  %18 = sub i64 %16, %17
  %19 = lshr exact i64 %18, 4
  %20 = trunc i64 %19 to i32
  %21 = load ptr, ptr %15, align 8, !tbaa !9
  %22 = getelementptr inbounds nuw i8, ptr %21, i64 24
  %23 = load ptr, ptr %22, align 8, !tbaa !9
  %24 = getelementptr inbounds nuw i8, ptr %23, i64 4
  %25 = load i8, ptr %24, align 4, !tbaa !73
  %26 = zext i8 %25 to i32
  %27 = xor i32 %26, -1
  %28 = add i32 %27, %20
  %29 = getelementptr inbounds nuw i8, ptr %2, i64 12
  %30 = load i32, ptr %29, align 4, !tbaa !4
  switch i32 %30, label %.critedge [
    i32 3, label %31
    i32 5, label %41
  ]

31:                                               ; preds = %9
  %32 = load double, ptr %2, align 8, !tbaa !9
  %33 = fptosi double %32 to i32
  %34 = add nsw i32 %33, -1
  %.not = icmp ult i32 %34, %28
  br i1 %.not, label %35, label %.critedge

35:                                               ; preds = %31
  %36 = sext i32 %28 to i64
  %37 = sub nsw i64 0, %36
  %38 = getelementptr inbounds %struct.lua_TValue, ptr %11, i64 %37
  %39 = sext i32 %34 to i64
  %40 = getelementptr inbounds %struct.lua_TValue, ptr %38, i64 %39
  tail call void @llvm.memcpy.p0.p0.i64(ptr noundef nonnull align 8 dereferenceable(16) %1, ptr noundef nonnull align 8 dereferenceable(16) %40, i64 16, i1 false), !tbaa.struct !56
  br label %.critedge

41:                                               ; preds = %9
  %42 = load ptr, ptr %2, align 8, !tbaa !9
  %43 = getelementptr inbounds nuw i8, ptr %42, i64 24
  %44 = load i8, ptr %43, align 8, !tbaa !9
  %45 = icmp eq i8 %44, 35
  br i1 %45, label %46, label %.critedge

46:                                               ; preds = %41
  %47 = sitofp i32 %28 to double
  store double %47, ptr %1, align 8, !tbaa !9
  %48 = getelementptr inbounds nuw i8, ptr %1, i64 12
  store i32 3, ptr %48, align 4, !tbaa !4
  br label %.critedge

.critedge:                                        ; preds = %41, %9, %31, %6, %46, %35
  %.3 = phi i32 [ 1, %35 ], [ 1, %46 ], [ -1, %6 ], [ -1, %31 ], [ -1, %9 ], [ -1, %41 ]
  ret i32 %.3
}